target datalayout = "e-m:e-p270:32:32-p271:32:32-p272:64:64-i64:64-i128:128-f80:128-n8:16:32:64-S128"
target triple = "x86_64-pc-linux-gnu"

%"class.std::__1::random_device" = type { i32 }

; Function Attrs: mustprogress nounwind uwtable
define dso_local noundef double @_ZNKSt3__113random_device7entropyEv(ptr noundef nonnull align 4 dereferenceable(4) %0) #2 align 2 {
  %2 = alloca double, align 8
  %3 = alloca ptr, align 8
  %4 = alloca i32, align 4
  %5 = alloca i32, align 4
  store ptr %0, ptr %3, align 8, !tbaa !4
  %6 = load ptr, ptr %3, align 8
  call void @llvm.lifetime.start.p0(i64 4, ptr %4) #17
  %7 = getelementptr inbounds nuw %"class.std::__1::random_device", ptr %6, i32 0, i32 0
  %8 = load i32, ptr %7, align 4, !tbaa !11
  %9 = call i32 (i32, i64, ...) @ioctl(i32 noundef %8, i64 noundef 2147766784, ptr noundef %4) #17
  %10 = icmp slt i32 %9, 0
  br i1 %10, label %11, label %12

11:                                               ; preds = %1
  store double 0.000000e+00, ptr %2, align 8
  store i32 1, ptr %5, align 4
  br label %23

12:                                               ; preds = %1
  %13 = load i32, ptr %4, align 4, !tbaa !14
  %14 = icmp slt i32 %13, 0
  br i1 %14, label %15, label %16

15:                                               ; preds = %12
  store double 0.000000e+00, ptr %2, align 8
  store i32 1, ptr %5, align 4
  br label %23

16:                                               ; preds = %12
  %17 = load i32, ptr %4, align 4, !tbaa !14
  %18 = icmp sgt i32 %17, 32
  br i1 %18, label %19, label %20

19:                                               ; preds = %16
  store double 3.200000e+01, ptr %2, align 8
  store i32 1, ptr %5, align 4
  br label %23

20:                                               ; preds = %16
  %21 = load i32, ptr %4, align 4, !tbaa !14
  %22 = sitofp i32 %21 to double
  store double %22, ptr %2, align 8
  store i32 1, ptr %5, align 4
  br label %23

23:                                               ; preds = %20, %19, %15, %11
  call void @llvm.lifetime.end.p0(i64 4, ptr %4) #17
  %24 = load double, ptr %2, align 8
  ret double %24
}