; Function Attrs: mustprogress nounwind uwtable
define dso_local noundef double @_ZNKSt3__113random_device7entropyEv(ptr noundef nonnull readonly align 4 captures(none) dereferenceable(4) %0) local_unnamed_addr #5 align 2 {
  %2 = alloca i32, align 4
  call void @llvm.lifetime.start.p0(i64 4, ptr nonnull %2) #12
  %3 = load i32, ptr %0, align 4, !tbaa !4
  %4 = call i32 (i32, i64, ...) @ioctl(i32 noundef %3, i64 noundef 2147766784, ptr noundef nonnull %2) #12
  %5 = icmp slt i32 %4, 0
  br i1 %5, label %13, label %6

6:                                                ; preds = %1
  %7 = load i32, ptr %2, align 4, !tbaa !9
  %8 = icmp slt i32 %7, 0
  br i1 %8, label %13, label %9

9:                                                ; preds = %6
  %10 = icmp samesign ugt i32 %7, 32
  br i1 %10, label %13, label %11

11:                                               ; preds = %9
  %12 = uitofp nneg i32 %7 to double
  br label %13

13:                                               ; preds = %9, %6, %1, %11
  %.0 = phi double [ %12, %11 ], [ 0.000000e+00, %1 ], [ 0.000000e+00, %6 ], [ 3.200000e+01, %9 ]
  call void @llvm.lifetime.end.p0(i64 4, ptr nonnull %2) #12
  ret double %.0
}